target datalayout = "e-m:e-p270:32:32-p271:32:32-p272:64:64-i64:64-i128:128-f80:128-n8:16:32:64-S128"
target triple = "x86_64-pc-linux-gnu"

%"class.llvm::DWARFDie" = type { ptr, ptr }
%"class.llvm::SmallVectorBase" = type { ptr, i32, i32 }
%"class.llvm::DWARFAbbreviationDeclaration" = type { i32, i16, i8, i8, %"class.llvm::SmallVector.55", %"class.std::optional.60" }
%"class.llvm::SmallVector.55" = type { %"class.llvm::SmallVectorImpl.56", %"struct.llvm::SmallVectorStorage.59" }
%"class.llvm::SmallVectorImpl.56" = type { %"class.llvm::SmallVectorTemplateBase.57" }
%"class.llvm::SmallVectorTemplateBase.57" = type { %"class.llvm::SmallVectorTemplateCommon.58" }
%"class.llvm::SmallVectorTemplateCommon.58" = type { %"class.llvm::SmallVectorBase" }
%"struct.llvm::SmallVectorStorage.59" = type { [128 x i8] }
%"class.std::optional.60" = type { %"struct.std::_Optional_base.61" }
%"struct.std::_Optional_base.61" = type { %"struct.std::_Optional_payload.63" }
%"struct.std::_Optional_payload.63" = type { %"struct.std::_Optional_payload_base.base.65", i8 }
%"struct.std::_Optional_payload_base.base.65" = type { %"union.std::_Optional_payload_base<llvm::DWARFAbbreviationDeclaration::FixedSizeInfo>::_Storage", i8 }
%"union.std::_Optional_payload_base<llvm::DWARFAbbreviationDeclaration::FixedSizeInfo>::_Storage" = type { %"struct.llvm::DWARFAbbreviationDeclaration::FixedSizeInfo" }
%"struct.llvm::DWARFAbbreviationDeclaration::FixedSizeInfo" = type <{ i16, i8, i8, i8, i8 }>
%"class.llvm::DWARFDebugInfoEntry" = type { i64, i32, i32, ptr }

; Function Attrs: mustprogress nounwind uwtable
define linkonce_odr hidden noundef ptr @_ZNK4llvm19DWARFDebugInfoEntry29getAbbreviationDeclarationPtrEv(ptr noundef nonnull align 8 dereferenceable(24) %0) #0 comdat align 2 {
  %2 = alloca ptr, align 8
  store ptr %0, ptr %2, align 8
  %3 = load ptr, ptr %2, align 8
  %4 = getelementptr inbounds nuw %"class.llvm::DWARFDebugInfoEntry", ptr %3, i32 0, i32 3
  %5 = load ptr, ptr %4, align 8
  ret ptr %5
}

; Function Attrs: mustprogress nounwind uwtable
define linkonce_odr hidden noundef zeroext i1 @_ZNK4llvm8DWARFDie7isValidEv(ptr noundef nonnull align 8 dereferenceable(16) %0) #0 comdat align 2 {
  %2 = alloca ptr, align 8
  store ptr %0, ptr %2, align 8
  %3 = load ptr, ptr %2, align 8
  %4 = getelementptr inbounds nuw %"class.llvm::DWARFDie", ptr %3, i32 0, i32 0
  %5 = load ptr, ptr %4, align 8
  %6 = icmp ne ptr %5, null
  br i1 %6, label %7, label %11

7:                                                ; preds = %1
  %8 = getelementptr inbounds nuw %"class.llvm::DWARFDie", ptr %3, i32 0, i32 1
  %9 = load ptr, ptr %8, align 8
  %10 = icmp ne ptr %9, null
  br label %11

11:                                               ; preds = %7, %1
  %12 = phi i1 [ false, %1 ], [ %10, %7 ]
  ret i1 %12
}

; Function Attrs: mustprogress nounwind uwtable
define linkonce_odr hidden noundef zeroext i16 @_ZNK4llvm28DWARFAbbreviationDeclaration6getTagEv(ptr noundef nonnull align 8 dereferenceable(160) %0) #0 comdat align 2 {
  %2 = alloca ptr, align 8
  store ptr %0, ptr %2, align 8
  %3 = load ptr, ptr %2, align 8
  %4 = getelementptr inbounds nuw %"class.llvm::DWARFAbbreviationDeclaration", ptr %3, i32 0, i32 1
  %5 = load i16, ptr %4, align 4
  ret i16 %5
}

; Function Attrs: mustprogress nounwind uwtable
define linkonce_odr hidden noundef ptr @_ZNK4llvm8DWARFDie29getAbbreviationDeclarationPtrEv(ptr noundef nonnull align 8 dereferenceable(16) %0) #0 comdat align 2 {
  %2 = alloca ptr, align 8
  store ptr %0, ptr %2, align 8
  %3 = load ptr, ptr %2, align 8
  %4 = getelementptr inbounds nuw %"class.llvm::DWARFDie", ptr %3, i32 0, i32 1
  %5 = load ptr, ptr %4, align 8
  %6 = call noundef ptr @_ZNK4llvm19DWARFDebugInfoEntry29getAbbreviationDeclarationPtrEv(ptr noundef nonnull align 8 dereferenceable(24) %5)
  ret ptr %6
}

; Function Attrs: mustprogress nounwind uwtable
define linkonce_odr hidden noundef zeroext i1 @_ZNK4llvm8DWARFDiecvbEv(ptr noundef nonnull align 8 dereferenceable(16) %0) #0 comdat align 2 {
  %2 = alloca ptr, align 8
  store ptr %0, ptr %2, align 8
  %3 = load ptr, ptr %2, align 8
  %4 = call noundef zeroext i1 @_ZNK4llvm8DWARFDie7isValidEv(ptr noundef nonnull align 8 dereferenceable(16) %3)
  ret i1 %4
}

; Function Attrs: mustprogress nounwind uwtable
define internal { ptr, ptr } @_ZN4llvmL21resolveReferencedTypeENS_8DWARFDieENS_5dwarf9AttributeE(ptr %0, ptr %1, i16 noundef zeroext %2) #0 {
  %4 = alloca %"class.llvm::DWARFDie", align 8
  %5 = alloca %"class.llvm::DWARFDie", align 8
  %6 = alloca i16, align 2
  %7 = alloca %"class.llvm::DWARFDie", align 8
  %8 = getelementptr inbounds nuw { ptr, ptr }, ptr %5, i32 0, i32 0
  store ptr %0, ptr %8, align 8
  %9 = getelementptr inbounds nuw { ptr, ptr }, ptr %5, i32 0, i32 1
  store ptr %1, ptr %9, align 8
  store i16 %2, ptr %6, align 2
  %10 = load i16, ptr %6, align 2
  %11 = call { ptr, ptr } @_ZNK4llvm8DWARFDie32getAttributeValueAsReferencedDieENS_5dwarf9AttributeE(ptr noundef nonnull align 8 dereferenceable(16) %5, i16 noundef zeroext %10)
  %12 = getelementptr inbounds nuw { ptr, ptr }, ptr %7, i32 0, i32 0
  %13 = extractvalue { ptr, ptr } %11, 0
  store ptr %13, ptr %12, align 8
  %14 = getelementptr inbounds nuw { ptr, ptr }, ptr %7, i32 0, i32 1
  %15 = extractvalue { ptr, ptr } %11, 1
  store ptr %15, ptr %14, align 8
  %16 = call { ptr, ptr } @_ZNK4llvm8DWARFDie24resolveTypeUnitReferenceEv(ptr noundef nonnull align 8 dereferenceable(16) %7)
  %17 = getelementptr inbounds nuw { ptr, ptr }, ptr %4, i32 0, i32 0
  %18 = extractvalue { ptr, ptr } %16, 0
  store ptr %18, ptr %17, align 8
  %19 = getelementptr inbounds nuw { ptr, ptr }, ptr %4, i32 0, i32 1
  %20 = extractvalue { ptr, ptr } %16, 1
  store ptr %20, ptr %19, align 8
  %21 = load { ptr, ptr }, ptr %4, align 8
  ret { ptr, ptr } %21
}

; Function Attrs: mustprogress nounwind uwtable
define linkonce_odr hidden noundef zeroext i16 @_ZNK4llvm8DWARFDie6getTagEv(ptr noundef nonnull align 8 dereferenceable(16) %0) #0 comdat align 2 {
  %2 = alloca i16, align 2
  %3 = alloca ptr, align 8
  %4 = alloca ptr, align 8
  store ptr %0, ptr %3, align 8
  %5 = load ptr, ptr %3, align 8
  %6 = call noundef ptr @_ZNK4llvm8DWARFDie29getAbbreviationDeclarationPtrEv(ptr noundef nonnull align 8 dereferenceable(16) %5)
  store ptr %6, ptr %4, align 8
  %7 = load ptr, ptr %4, align 8
  %8 = icmp ne ptr %7, null
  br i1 %8, label %9, label %12

9:                                                ; preds = %1
  %10 = load ptr, ptr %4, align 8
  %11 = call noundef zeroext i16 @_ZNK4llvm28DWARFAbbreviationDeclaration6getTagEv(ptr noundef nonnull align 8 dereferenceable(160) %10)
  store i16 %11, ptr %2, align 2
  br label %13

12:                                               ; preds = %1
  store i16 0, ptr %2, align 2
  br label %13

13:                                               ; preds = %12, %9
  %14 = load i16, ptr %2, align 2
  ret i16 %14
}

; Function Attrs: mustprogress nounwind uwtable
define dso_local void @_ZN4llvm16DWARFTypePrinter22decomposeConstVolatileERNS_8DWARFDieES2_S2_S2_(ptr noundef nonnull align 8 dereferenceable(10) %0, ptr noundef nonnull align 8 dereferenceable(16) %1, ptr noundef nonnull align 8 dereferenceable(16) %2, ptr noundef nonnull align 8 dereferenceable(16) %3, ptr noundef nonnull align 8 dereferenceable(16) %4) #0 align 2 {
  %6 = alloca ptr, align 8
  %7 = alloca ptr, align 8
  %8 = alloca ptr, align 8
  %9 = alloca ptr, align 8
  %10 = alloca ptr, align 8
  %11 = alloca %"class.llvm::DWARFDie", align 8
  %12 = alloca %"class.llvm::DWARFDie", align 8
  %13 = alloca i16, align 2
  %14 = alloca %"class.llvm::DWARFDie", align 8
  %15 = alloca %"class.llvm::DWARFDie", align 8
  %16 = alloca %"class.llvm::DWARFDie", align 8
  %17 = alloca %"class.llvm::DWARFDie", align 8
  store ptr %0, ptr %6, align 8
  store ptr %1, ptr %7, align 8
  store ptr %2, ptr %8, align 8
  store ptr %3, ptr %9, align 8
  store ptr %4, ptr %10, align 8
  %18 = load ptr, ptr %7, align 8
  %19 = load ptr, ptr %7, align 8
  %20 = call noundef zeroext i16 @_ZNK4llvm8DWARFDie6getTagEv(ptr noundef nonnull align 8 dereferenceable(16) %19)
  %21 = zext i16 %20 to i32
  %22 = icmp eq i32 %21, 38
  br i1 %22, label %23, label %25

23:                                               ; preds = %5
  %24 = load ptr, ptr %9, align 8
  br label %27

25:                                               ; preds = %5
  %26 = load ptr, ptr %10, align 8
  br label %27

27:                                               ; preds = %25, %23
  %28 = phi ptr [ %24, %23 ], [ %26, %25 ]
  call void @llvm.memcpy.p0.p0.i64(ptr align 8 %28, ptr align 8 %18, i64 16, i1 false)
  %29 = load ptr, ptr %7, align 8
  call void @llvm.memcpy.p0.p0.i64(ptr align 8 %12, ptr align 8 %29, i64 16, i1 false)
  %30 = getelementptr inbounds nuw { ptr, ptr }, ptr %12, i32 0, i32 0
  %31 = load ptr, ptr %30, align 8
  %32 = getelementptr inbounds nuw { ptr, ptr }, ptr %12, i32 0, i32 1
  %33 = load ptr, ptr %32, align 8
  %34 = call { ptr, ptr } @_ZN4llvmL21resolveReferencedTypeENS_8DWARFDieENS_5dwarf9AttributeE(ptr %31, ptr %33, i16 noundef zeroext 73)
  %35 = getelementptr inbounds nuw { ptr, ptr }, ptr %11, i32 0, i32 0
  %36 = extractvalue { ptr, ptr } %34, 0
  store ptr %36, ptr %35, align 8
  %37 = getelementptr inbounds nuw { ptr, ptr }, ptr %11, i32 0, i32 1
  %38 = extractvalue { ptr, ptr } %34, 1
  store ptr %38, ptr %37, align 8
  %39 = load ptr, ptr %8, align 8
  call void @llvm.memcpy.p0.p0.i64(ptr align 8 %39, ptr align 8 %11, i64 16, i1 false)
  %40 = load ptr, ptr %8, align 8
  %41 = call noundef zeroext i1 @_ZNK4llvm8DWARFDiecvbEv(ptr noundef nonnull align 8 dereferenceable(16) %40)
  br i1 %41, label %42, label %82

42:                                               ; preds = %27
  %43 = load ptr, ptr %8, align 8
  %44 = call noundef zeroext i16 @_ZNK4llvm8DWARFDie6getTagEv(ptr noundef nonnull align 8 dereferenceable(16) %43)
  store i16 %44, ptr %13, align 2
  %45 = load i16, ptr %13, align 2
  %46 = zext i16 %45 to i32
  %47 = icmp eq i32 %46, 38
  br i1 %47, label %48, label %62

48:                                               ; preds = %42
  %49 = load ptr, ptr %8, align 8
  %50 = load ptr, ptr %9, align 8
  call void @llvm.memcpy.p0.p0.i64(ptr align 8 %50, ptr align 8 %49, i64 16, i1 false)
  %51 = load ptr, ptr %8, align 8
  call void @llvm.memcpy.p0.p0.i64(ptr align 8 %15, ptr align 8 %51, i64 16, i1 false)
  %52 = getelementptr inbounds nuw { ptr, ptr }, ptr %15, i32 0, i32 0
  %53 = load ptr, ptr %52, align 8
  %54 = getelementptr inbounds nuw { ptr, ptr }, ptr %15, i32 0, i32 1
  %55 = load ptr, ptr %54, align 8
  %56 = call { ptr, ptr } @_ZN4llvmL21resolveReferencedTypeENS_8DWARFDieENS_5dwarf9AttributeE(ptr %53, ptr %55, i16 noundef zeroext 73)
  %57 = getelementptr inbounds nuw { ptr, ptr }, ptr %14, i32 0, i32 0
  %58 = extractvalue { ptr, ptr } %56, 0
  store ptr %58, ptr %57, align 8
  %59 = getelementptr inbounds nuw { ptr, ptr }, ptr %14, i32 0, i32 1
  %60 = extractvalue { ptr, ptr } %56, 1
  store ptr %60, ptr %59, align 8
  %61 = load ptr, ptr %8, align 8
  call void @llvm.memcpy.p0.p0.i64(ptr align 8 %61, ptr align 8 %14, i64 16, i1 false)
  br label %81

62:                                               ; preds = %42
  %63 = load i16, ptr %13, align 2
  %64 = zext i16 %63 to i32
  %65 = icmp eq i32 %64, 53
  br i1 %65, label %66, label %80

66:                                               ; preds = %62
  %67 = load ptr, ptr %8, align 8
  %68 = load ptr, ptr %10, align 8
  call void @llvm.memcpy.p0.p0.i64(ptr align 8 %68, ptr align 8 %67, i64 16, i1 false)
  %69 = load ptr, ptr %8, align 8
  call void @llvm.memcpy.p0.p0.i64(ptr align 8 %17, ptr align 8 %69, i64 16, i1 false)
  %70 = getelementptr inbounds nuw { ptr, ptr }, ptr %17, i32 0, i32 0
  %71 = load ptr, ptr %70, align 8
  %72 = getelementptr inbounds nuw { ptr, ptr }, ptr %17, i32 0, i32 1
  %73 = load ptr, ptr %72, align 8
  %74 = call { ptr, ptr } @_ZN4llvmL21resolveReferencedTypeENS_8DWARFDieENS_5dwarf9AttributeE(ptr %71, ptr %73, i16 noundef zeroext 73)
  %75 = getelementptr inbounds nuw { ptr, ptr }, ptr %16, i32 0, i32 0
  %76 = extractvalue { ptr, ptr } %74, 0
  store ptr %76, ptr %75, align 8
  %77 = getelementptr inbounds nuw { ptr, ptr }, ptr %16, i32 0, i32 1
  %78 = extractvalue { ptr, ptr } %74, 1
  store ptr %78, ptr %77, align 8
  %79 = load ptr, ptr %8, align 8
  call void @llvm.memcpy.p0.p0.i64(ptr align 8 %79, ptr align 8 %16, i64 16, i1 false)
  br label %80

80:                                               ; preds = %66, %62
  br label %81

81:                                               ; preds = %80, %48
  br label %82

82:                                               ; preds = %81, %27
  ret void
}