; Function Attrs: mustprogress nounwind uwtable
define dso_local void @_ZN4llvm16DWARFTypePrinter22decomposeConstVolatileERNS_8DWARFDieES2_S2_S2_(ptr nonnull readnone align 8 captures(none) %0, ptr noundef nonnull readonly align 8 captures(none) dereferenceable(16) %1, ptr noundef nonnull align 8 captures(none) dereferenceable(16) initializes((0, 16)) %2, ptr noundef nonnull writeonly align 8 captures(none) dereferenceable(16) %3, ptr noundef nonnull writeonly align 8 captures(none) dereferenceable(16) %4) local_unnamed_addr #0 align 2 {
  %6 = alloca %"class.llvm::DWARFDie", align 8
  %7 = alloca %"class.llvm::DWARFDie", align 8
  %8 = alloca %"class.llvm::DWARFDie", align 8
  %9 = alloca %"class.llvm::DWARFDie", align 8
  %10 = alloca %"class.llvm::DWARFDie", align 8
  %11 = alloca %"class.llvm::DWARFDie", align 8
  %12 = getelementptr inbounds nuw i8, ptr %1, i64 8
  %13 = load ptr, ptr %12, align 8
  %14 = getelementptr inbounds nuw i8, ptr %13, i64 16
  %15 = load ptr, ptr %14, align 8
  %.not.i = icmp eq ptr %15, null
  br i1 %.not.i, label %_ZNK4llvm8DWARFDie6getTagEv.exit.thread, label %_ZNK4llvm8DWARFDie6getTagEv.exit

_ZNK4llvm8DWARFDie6getTagEv.exit:                 ; preds = %5
  %16 = getelementptr inbounds nuw i8, ptr %15, i64 4
  %17 = load i16, ptr %16, align 4
  %.fr = freeze i16 %17
  %18 = icmp eq i16 %.fr, 38
  %spec.select = select i1 %18, ptr %3, ptr %4
  br label %_ZNK4llvm8DWARFDie6getTagEv.exit.thread

_ZNK4llvm8DWARFDie6getTagEv.exit.thread:          ; preds = %_ZNK4llvm8DWARFDie6getTagEv.exit, %5
  %19 = phi ptr [ %4, %5 ], [ %spec.select, %_ZNK4llvm8DWARFDie6getTagEv.exit ]
  tail call void @llvm.memcpy.p0.p0.i64(ptr noundef nonnull align 8 dereferenceable(16) %19, ptr noundef nonnull align 8 dereferenceable(16) %1, i64 16, i1 false)
  %.sroa.08.0.copyload = load ptr, ptr %1, align 8
  %.sroa.29.0.copyload = load ptr, ptr %12, align 8
  call void @llvm.lifetime.start.p0(i64 16, ptr nonnull %10)
  call void @llvm.lifetime.start.p0(i64 16, ptr nonnull %11)
  store ptr %.sroa.08.0.copyload, ptr %10, align 8
  %20 = getelementptr inbounds nuw i8, ptr %10, i64 8
  store ptr %.sroa.29.0.copyload, ptr %20, align 8
  %21 = call { ptr, ptr } @_ZNK4llvm8DWARFDie32getAttributeValueAsReferencedDieENS_5dwarf9AttributeE(ptr noundef nonnull align 8 dereferenceable(16) %10, i16 noundef zeroext 73) #16
  %22 = extractvalue { ptr, ptr } %21, 0
  store ptr %22, ptr %11, align 8
  %23 = getelementptr inbounds nuw i8, ptr %11, i64 8
  %24 = extractvalue { ptr, ptr } %21, 1
  store ptr %24, ptr %23, align 8
  %25 = call { ptr, ptr } @_ZNK4llvm8DWARFDie24resolveTypeUnitReferenceEv(ptr noundef nonnull align 8 dereferenceable(16) %11) #16
  call void @llvm.lifetime.end.p0(i64 16, ptr nonnull %10)
  call void @llvm.lifetime.end.p0(i64 16, ptr nonnull %11)
  %26 = extractvalue { ptr, ptr } %25, 0
  %27 = extractvalue { ptr, ptr } %25, 1
  store ptr %26, ptr %2, align 8
  %.sroa.211.0..sroa_idx = getelementptr inbounds nuw i8, ptr %2, i64 8
  store ptr %27, ptr %.sroa.211.0..sroa_idx, align 8
  %.not.i.i = icmp ne ptr %26, null
  %28 = icmp ne ptr %27, null
  %29 = select i1 %.not.i.i, i1 %28, i1 false
  br i1 %29, label %30, label %_ZNK4llvm8DWARFDie6getTagEv.exit29.thread

30:                                               ; preds = %_ZNK4llvm8DWARFDie6getTagEv.exit.thread
  %31 = getelementptr inbounds nuw i8, ptr %27, i64 16
  %32 = load ptr, ptr %31, align 8
  %.not.i27 = icmp eq ptr %32, null
  br i1 %.not.i27, label %_ZNK4llvm8DWARFDie6getTagEv.exit29.thread, label %_ZNK4llvm8DWARFDie6getTagEv.exit29

_ZNK4llvm8DWARFDie6getTagEv.exit29:               ; preds = %30
  %33 = getelementptr inbounds nuw i8, ptr %32, i64 4
  %34 = load i16, ptr %33, align 4
  switch i16 %34, label %_ZNK4llvm8DWARFDie6getTagEv.exit29.thread [
    i16 38, label %35
    i16 53, label %42
  ]

35:                                               ; preds = %_ZNK4llvm8DWARFDie6getTagEv.exit29
  call void @llvm.memcpy.p0.p0.i64(ptr noundef nonnull align 8 dereferenceable(16) %3, ptr noundef nonnull align 8 dereferenceable(16) %2, i64 16, i1 false)
  %.sroa.03.0.copyload = load ptr, ptr %2, align 8
  %.sroa.24.0.copyload = load ptr, ptr %.sroa.211.0..sroa_idx, align 8
  call void @llvm.lifetime.start.p0(i64 16, ptr nonnull %8)
  call void @llvm.lifetime.start.p0(i64 16, ptr nonnull %9)
  store ptr %.sroa.03.0.copyload, ptr %8, align 8
  %36 = getelementptr inbounds nuw i8, ptr %8, i64 8
  store ptr %.sroa.24.0.copyload, ptr %36, align 8
  %37 = call { ptr, ptr } @_ZNK4llvm8DWARFDie32getAttributeValueAsReferencedDieENS_5dwarf9AttributeE(ptr noundef nonnull align 8 dereferenceable(16) %8, i16 noundef zeroext 73) #16
  %38 = extractvalue { ptr, ptr } %37, 0
  store ptr %38, ptr %9, align 8
  %39 = getelementptr inbounds nuw i8, ptr %9, i64 8
  %40 = extractvalue { ptr, ptr } %37, 1
  store ptr %40, ptr %39, align 8
  %41 = call { ptr, ptr } @_ZNK4llvm8DWARFDie24resolveTypeUnitReferenceEv(ptr noundef nonnull align 8 dereferenceable(16) %9) #16
  call void @llvm.lifetime.end.p0(i64 16, ptr nonnull %8)
  call void @llvm.lifetime.end.p0(i64 16, ptr nonnull %9)
  br label %_ZNK4llvm8DWARFDie6getTagEv.exit29.thread.sink.split

42:                                               ; preds = %_ZNK4llvm8DWARFDie6getTagEv.exit29
  call void @llvm.memcpy.p0.p0.i64(ptr noundef nonnull align 8 dereferenceable(16) %4, ptr noundef nonnull align 8 dereferenceable(16) %2, i64 16, i1 false)
  %.sroa.0.0.copyload = load ptr, ptr %2, align 8
  %.sroa.2.0.copyload = load ptr, ptr %.sroa.211.0..sroa_idx, align 8
  call void @llvm.lifetime.start.p0(i64 16, ptr nonnull %6)
  call void @llvm.lifetime.start.p0(i64 16, ptr nonnull %7)
  store ptr %.sroa.0.0.copyload, ptr %6, align 8
  %43 = getelementptr inbounds nuw i8, ptr %6, i64 8
  store ptr %.sroa.2.0.copyload, ptr %43, align 8
  %44 = call { ptr, ptr } @_ZNK4llvm8DWARFDie32getAttributeValueAsReferencedDieENS_5dwarf9AttributeE(ptr noundef nonnull align 8 dereferenceable(16) %6, i16 noundef zeroext 73) #16
  %45 = extractvalue { ptr, ptr } %44, 0
  store ptr %45, ptr %7, align 8
  %46 = getelementptr inbounds nuw i8, ptr %7, i64 8
  %47 = extractvalue { ptr, ptr } %44, 1
  store ptr %47, ptr %46, align 8
  %48 = call { ptr, ptr } @_ZNK4llvm8DWARFDie24resolveTypeUnitReferenceEv(ptr noundef nonnull align 8 dereferenceable(16) %7) #16
  call void @llvm.lifetime.end.p0(i64 16, ptr nonnull %6)
  call void @llvm.lifetime.end.p0(i64 16, ptr nonnull %7)
  br label %_ZNK4llvm8DWARFDie6getTagEv.exit29.thread.sink.split

_ZNK4llvm8DWARFDie6getTagEv.exit29.thread.sink.split: ; preds = %42, %35
  %.sink = phi { ptr, ptr } [ %41, %35 ], [ %48, %42 ]
  %49 = extractvalue { ptr, ptr } %.sink, 0
  %50 = extractvalue { ptr, ptr } %.sink, 1
  store ptr %49, ptr %2, align 8
  store ptr %50, ptr %.sroa.211.0..sroa_idx, align 8
  br label %_ZNK4llvm8DWARFDie6getTagEv.exit29.thread

_ZNK4llvm8DWARFDie6getTagEv.exit29.thread:        ; preds = %_ZNK4llvm8DWARFDie6getTagEv.exit29.thread.sink.split, %30, %_ZNK4llvm8DWARFDie6getTagEv.exit29, %_ZNK4llvm8DWARFDie6getTagEv.exit.thread
  ret void
}